(dp0
Vengine
p1
S'pdflatex'
p2
sVpackages
p3
c__builtin__
set
p4
((lp5
tp6
Rp7
sVfiles_with_guttermarks
p8
g4
((lp9
V/Users/Dylan/Documents/Cours/MT_MA3/Machine Learning/ML_Cheatsheet/./exams.tex
p10
aS'exams.tex'
p11
atp12
Rp13
sVsynctex
p14
I01
s.