(dp0
Vengine
p1
S'pdflatex'
p2
sVpackages
p3
c__builtin__
set
p4
((lp5
Vtikz
p6
aVmulticol
p7
aVmdframed
p8
aVgeometry
p9
aVbabel
p10
aVkpfonts
p11
aVinputenc
p12
aVwrapfig
p13
aVsourcesanspro
p14
aVmicrotype
p15
atp16
Rp17
sVfiles_with_guttermarks
p18
g4
((lp19
Vmaster.tex
p20
aV/Users/Dylan/Documents/Cours/MT_MA3/Machine Learning/ML_Cheatsheet/./exams.tex
p21
atp22
Rp23
sVsynctex
p24
I01
s.